; Function Attrs: mustprogress nounwind uwtable
define dso_local range(i64 0, 8589934592) i64 @_ZNK4llvm21AppleAcceleratorTable16readU32FromAccelERmb(ptr noundef nonnull align 8 dereferenceable(149) %0, ptr noundef nonnull align 8 dereferenceable(8) %1, i1 noundef zeroext %2) local_unnamed_addr #3 align 2 {
_ZN4llvm12ErrorSuccessD2Ev.exit:
  %3 = alloca %"class.llvm::Error", align 8
  %4 = alloca %"class.llvm::Error", align 8
  %5 = alloca %class.anon.215, align 1
  %6 = alloca %"class.llvm::Error", align 8
  store ptr null, ptr %6, align 8
  %7 = getelementptr inbounds nuw i8, ptr %0, i64 8
  br i1 %2, label %8, label %11

8:                                                ; preds = %_ZN4llvm12ErrorSuccessD2Ev.exit
  %9 = call noundef i64 @_ZNK4llvm18DWARFDataExtractor17getRelocatedValueEjPmS1_PNS_5ErrorE(ptr noundef nonnull align 8 dereferenceable(40) %7, i32 noundef 4, ptr noundef nonnull %1, ptr noundef null, ptr noundef nonnull %6) #27
  %10 = trunc i64 %9 to i32
  br label %13

11:                                               ; preds = %_ZN4llvm12ErrorSuccessD2Ev.exit
  %12 = call noundef i32 @_ZNK4llvm13DataExtractor6getU32EPmPNS_5ErrorE(ptr noundef nonnull align 8 dereferenceable(18) %7, ptr noundef nonnull %1, ptr noundef nonnull %6) #27
  br label %13

13:                                               ; preds = %11, %8
  %14 = phi i32 [ %10, %8 ], [ %12, %11 ]
  %15 = load ptr, ptr %6, align 8
  %.not = icmp eq ptr %15, null
  br i1 %.not, label %_ZN4llvm5ErrorD2Ev.exit3, label %16

16:                                               ; preds = %13
  store ptr null, ptr %6, align 8
  call void @llvm.lifetime.start.p0(i64 1, ptr nonnull %5)
  call void @llvm.lifetime.start.p0(i64 8, ptr nonnull %3)
  call void @llvm.lifetime.start.p0(i64 8, ptr nonnull %4)
  store ptr %15, ptr %4, align 8
  call void @_ZN4llvm12handleErrorsIJZNS_12consumeErrorENS_5ErrorEEUlRKNS_13ErrorInfoBaseEE_EEES1_S1_DpOT_(ptr dead_on_unwind nonnull writable sret(%"class.llvm::Error") align 8 %3, ptr noundef nonnull %4, ptr noundef nonnull align 1 dereferenceable(1) %5)
  %17 = load ptr, ptr %3, align 8
  %.not.i.i.i = icmp eq ptr %17, null
  call void @llvm.assume(i1 %.not.i.i.i)
  %18 = load ptr, ptr %4, align 8
  %19 = icmp eq ptr %18, null
  br i1 %19, label %24, label %20

20:                                               ; preds = %16
  %21 = load ptr, ptr %18, align 8
  %22 = getelementptr inbounds nuw i8, ptr %21, i64 8
  %23 = load ptr, ptr %22, align 8
  call void %23(ptr noundef nonnull align 8 dereferenceable(8) %18) #27
  br label %24

24:                                               ; preds = %16, %20
  call void @llvm.lifetime.end.p0(i64 8, ptr nonnull %3)
  call void @llvm.lifetime.end.p0(i64 8, ptr nonnull %4)
  call void @llvm.lifetime.end.p0(i64 1, ptr nonnull %5)
  %.pr = load ptr, ptr %6, align 8
  %25 = icmp eq ptr %.pr, null
  br i1 %25, label %_ZN4llvm5ErrorD2Ev.exit3, label %26

26:                                               ; preds = %24
  %27 = load ptr, ptr %.pr, align 8
  %28 = getelementptr inbounds nuw i8, ptr %27, i64 8
  %29 = load ptr, ptr %28, align 8
  call void %29(ptr noundef nonnull align 8 dereferenceable(8) %.pr) #27
  br label %_ZN4llvm5ErrorD2Ev.exit3

_ZN4llvm5ErrorD2Ev.exit3:                         ; preds = %13, %24, %26
  %.sroa.2.09 = phi i64 [ 0, %24 ], [ 0, %26 ], [ 4294967296, %13 ]
  %.sroa.07.0.insert.ext = zext i32 %14 to i64
  %.sroa.07.0.insert.insert = or disjoint i64 %.sroa.2.09, %.sroa.07.0.insert.ext
  ret i64 %.sroa.07.0.insert.insert
}